target datalayout = "e-m:e-p270:32:32-p271:32:32-p272:64:64-i64:64-i128:128-f80:128-n8:16:32:64-S128"
target triple = "x86_64-pc-linux-gnu"

%struct.zskiplistNode = type { ptr, double, ptr, [0 x %struct.zskiplistLevel] }
%struct.zskiplistLevel = type { ptr, i64 }
%struct.zskiplist = type { ptr, ptr, i64, i32 }

; Function Attrs: nounwind uwtable
define dso_local void @zslFreeNode(ptr noundef %0) #0 {
  %2 = alloca ptr, align 8
  store ptr %0, ptr %2, align 8, !tbaa !14
  %3 = load ptr, ptr %2, align 8, !tbaa !14
  %4 = getelementptr inbounds nuw %struct.zskiplistNode, ptr %3, i32 0, i32 0
  %5 = load ptr, ptr %4, align 8, !tbaa !11
  call void @sdsfree(ptr noundef %5)
  %6 = load ptr, ptr %2, align 8, !tbaa !14
  call void @zfree(ptr noundef %6)
  ret void
}

; Function Attrs: nounwind uwtable
define dso_local void @zslDeleteNode(ptr noundef %0, ptr noundef %1, ptr noundef %2) #0 {
  %4 = alloca ptr, align 8
  %5 = alloca ptr, align 8
  %6 = alloca ptr, align 8
  %7 = alloca i32, align 4
  store ptr %0, ptr %4, align 8, !tbaa !16
  store ptr %1, ptr %5, align 8, !tbaa !14
  store ptr %2, ptr %6, align 8, !tbaa !37
  call void @llvm.lifetime.start.p0(i64 4, ptr %7) #12
  store i32 0, ptr %7, align 4, !tbaa !5
  br label %8

8:                                                ; preds = %80, %3
  %9 = load i32, ptr %7, align 4, !tbaa !5
  %10 = load ptr, ptr %4, align 8, !tbaa !16
  %11 = getelementptr inbounds nuw %struct.zskiplist, ptr %10, i32 0, i32 3
  %12 = load i32, ptr %11, align 8, !tbaa !18
  %13 = icmp slt i32 %9, %12
  br i1 %13, label %14, label %83

14:                                               ; preds = %8
  %15 = load ptr, ptr %6, align 8, !tbaa !37
  %16 = load i32, ptr %7, align 4, !tbaa !5
  %17 = sext i32 %16 to i64
  %18 = getelementptr inbounds ptr, ptr %15, i64 %17
  %19 = load ptr, ptr %18, align 8, !tbaa !14
  %20 = getelementptr inbounds nuw %struct.zskiplistNode, ptr %19, i32 0, i32 3
  %21 = load i32, ptr %7, align 4, !tbaa !5
  %22 = sext i32 %21 to i64
  %23 = getelementptr inbounds [0 x %struct.zskiplistLevel], ptr %20, i64 0, i64 %22
  %24 = getelementptr inbounds nuw %struct.zskiplistLevel, ptr %23, i32 0, i32 0
  %25 = load ptr, ptr %24, align 8, !tbaa !23
  %26 = load ptr, ptr %5, align 8, !tbaa !14
  %27 = icmp eq ptr %25, %26
  br i1 %27, label %28, label %66

28:                                               ; preds = %14
  %29 = load ptr, ptr %5, align 8, !tbaa !14
  %30 = getelementptr inbounds nuw %struct.zskiplistNode, ptr %29, i32 0, i32 3
  %31 = load i32, ptr %7, align 4, !tbaa !5
  %32 = sext i32 %31 to i64
  %33 = getelementptr inbounds [0 x %struct.zskiplistLevel], ptr %30, i64 0, i64 %32
  %34 = getelementptr inbounds nuw %struct.zskiplistLevel, ptr %33, i32 0, i32 1
  %35 = load i64, ptr %34, align 8, !tbaa !25
  %36 = sub i64 %35, 1
  %37 = load ptr, ptr %6, align 8, !tbaa !37
  %38 = load i32, ptr %7, align 4, !tbaa !5
  %39 = sext i32 %38 to i64
  %40 = getelementptr inbounds ptr, ptr %37, i64 %39
  %41 = load ptr, ptr %40, align 8, !tbaa !14
  %42 = getelementptr inbounds nuw %struct.zskiplistNode, ptr %41, i32 0, i32 3
  %43 = load i32, ptr %7, align 4, !tbaa !5
  %44 = sext i32 %43 to i64
  %45 = getelementptr inbounds [0 x %struct.zskiplistLevel], ptr %42, i64 0, i64 %44
  %46 = getelementptr inbounds nuw %struct.zskiplistLevel, ptr %45, i32 0, i32 1
  %47 = load i64, ptr %46, align 8, !tbaa !25
  %48 = add i64 %47, %36
  store i64 %48, ptr %46, align 8, !tbaa !25
  %49 = load ptr, ptr %5, align 8, !tbaa !14
  %50 = getelementptr inbounds nuw %struct.zskiplistNode, ptr %49, i32 0, i32 3
  %51 = load i32, ptr %7, align 4, !tbaa !5
  %52 = sext i32 %51 to i64
  %53 = getelementptr inbounds [0 x %struct.zskiplistLevel], ptr %50, i64 0, i64 %52
  %54 = getelementptr inbounds nuw %struct.zskiplistLevel, ptr %53, i32 0, i32 0
  %55 = load ptr, ptr %54, align 8, !tbaa !23
  %56 = load ptr, ptr %6, align 8, !tbaa !37
  %57 = load i32, ptr %7, align 4, !tbaa !5
  %58 = sext i32 %57 to i64
  %59 = getelementptr inbounds ptr, ptr %56, i64 %58
  %60 = load ptr, ptr %59, align 8, !tbaa !14
  %61 = getelementptr inbounds nuw %struct.zskiplistNode, ptr %60, i32 0, i32 3
  %62 = load i32, ptr %7, align 4, !tbaa !5
  %63 = sext i32 %62 to i64
  %64 = getelementptr inbounds [0 x %struct.zskiplistLevel], ptr %61, i64 0, i64 %63
  %65 = getelementptr inbounds nuw %struct.zskiplistLevel, ptr %64, i32 0, i32 0
  store ptr %55, ptr %65, align 8, !tbaa !23
  br label %79

66:                                               ; preds = %14
  %67 = load ptr, ptr %6, align 8, !tbaa !37
  %68 = load i32, ptr %7, align 4, !tbaa !5
  %69 = sext i32 %68 to i64
  %70 = getelementptr inbounds ptr, ptr %67, i64 %69
  %71 = load ptr, ptr %70, align 8, !tbaa !14
  %72 = getelementptr inbounds nuw %struct.zskiplistNode, ptr %71, i32 0, i32 3
  %73 = load i32, ptr %7, align 4, !tbaa !5
  %74 = sext i32 %73 to i64
  %75 = getelementptr inbounds [0 x %struct.zskiplistLevel], ptr %72, i64 0, i64 %74
  %76 = getelementptr inbounds nuw %struct.zskiplistLevel, ptr %75, i32 0, i32 1
  %77 = load i64, ptr %76, align 8, !tbaa !25
  %78 = sub i64 %77, 1
  store i64 %78, ptr %76, align 8, !tbaa !25
  br label %79

79:                                               ; preds = %66, %28
  br label %80

80:                                               ; preds = %79
  %81 = load i32, ptr %7, align 4, !tbaa !5
  %82 = add nsw i32 %81, 1
  store i32 %82, ptr %7, align 4, !tbaa !5
  br label %8, !llvm.loop !39

83:                                               ; preds = %8
  %84 = load ptr, ptr %5, align 8, !tbaa !14
  %85 = getelementptr inbounds nuw %struct.zskiplistNode, ptr %84, i32 0, i32 3
  %86 = getelementptr inbounds [0 x %struct.zskiplistLevel], ptr %85, i64 0, i64 0
  %87 = getelementptr inbounds nuw %struct.zskiplistLevel, ptr %86, i32 0, i32 0
  %88 = load ptr, ptr %87, align 8, !tbaa !23
  %89 = icmp ne ptr %88, null
  br i1 %89, label %90, label %100

90:                                               ; preds = %83
  %91 = load ptr, ptr %5, align 8, !tbaa !14
  %92 = getelementptr inbounds nuw %struct.zskiplistNode, ptr %91, i32 0, i32 2
  %93 = load ptr, ptr %92, align 8, !tbaa !14
  %94 = load ptr, ptr %5, align 8, !tbaa !14
  %95 = getelementptr inbounds nuw %struct.zskiplistNode, ptr %94, i32 0, i32 3
  %96 = getelementptr inbounds [0 x %struct.zskiplistLevel], ptr %95, i64 0, i64 0
  %97 = getelementptr inbounds nuw %struct.zskiplistLevel, ptr %96, i32 0, i32 0
  %98 = load ptr, ptr %97, align 8, !tbaa !23
  %99 = getelementptr inbounds nuw %struct.zskiplistNode, ptr %98, i32 0, i32 2
  store ptr %93, ptr %99, align 8, !tbaa !14
  br label %106

100:                                              ; preds = %83
  %101 = load ptr, ptr %5, align 8, !tbaa !14
  %102 = getelementptr inbounds nuw %struct.zskiplistNode, ptr %101, i32 0, i32 2
  %103 = load ptr, ptr %102, align 8, !tbaa !14
  %104 = load ptr, ptr %4, align 8, !tbaa !16
  %105 = getelementptr inbounds nuw %struct.zskiplist, ptr %104, i32 0, i32 1
  store ptr %103, ptr %105, align 8, !tbaa !28
  br label %106

106:                                              ; preds = %100, %90
  br label %107

107:                                              ; preds = %128, %106
  %108 = load ptr, ptr %4, align 8, !tbaa !16
  %109 = getelementptr inbounds nuw %struct.zskiplist, ptr %108, i32 0, i32 3
  %110 = load i32, ptr %109, align 8, !tbaa !18
  %111 = icmp sgt i32 %110, 1
  br i1 %111, label %112, label %126

112:                                              ; preds = %107
  %113 = load ptr, ptr %4, align 8, !tbaa !16
  %114 = getelementptr inbounds nuw %struct.zskiplist, ptr %113, i32 0, i32 0
  %115 = load ptr, ptr %114, align 8, !tbaa !22
  %116 = getelementptr inbounds nuw %struct.zskiplistNode, ptr %115, i32 0, i32 3
  %117 = load ptr, ptr %4, align 8, !tbaa !16
  %118 = getelementptr inbounds nuw %struct.zskiplist, ptr %117, i32 0, i32 3
  %119 = load i32, ptr %118, align 8, !tbaa !18
  %120 = sub nsw i32 %119, 1
  %121 = sext i32 %120 to i64
  %122 = getelementptr inbounds [0 x %struct.zskiplistLevel], ptr %116, i64 0, i64 %121
  %123 = getelementptr inbounds nuw %struct.zskiplistLevel, ptr %122, i32 0, i32 0
  %124 = load ptr, ptr %123, align 8, !tbaa !23
  %125 = icmp eq ptr %124, null
  br label %126

126:                                              ; preds = %112, %107
  %127 = phi i1 [ false, %107 ], [ %125, %112 ]
  br i1 %127, label %128, label %133

128:                                              ; preds = %126
  %129 = load ptr, ptr %4, align 8, !tbaa !16
  %130 = getelementptr inbounds nuw %struct.zskiplist, ptr %129, i32 0, i32 3
  %131 = load i32, ptr %130, align 8, !tbaa !18
  %132 = add nsw i32 %131, -1
  store i32 %132, ptr %130, align 8, !tbaa !18
  br label %107, !llvm.loop !40

133:                                              ; preds = %126
  %134 = load ptr, ptr %4, align 8, !tbaa !16
  %135 = getelementptr inbounds nuw %struct.zskiplist, ptr %134, i32 0, i32 2
  %136 = load i64, ptr %135, align 8, !tbaa !21
  %137 = add i64 %136, -1
  store i64 %137, ptr %135, align 8, !tbaa !21
  call void @llvm.lifetime.end.p0(i64 4, ptr %7) #12
  ret void
}

; Function Attrs: nounwind uwtable
define dso_local i32 @zslDelete(ptr noundef %0, double noundef %1, ptr noundef %2, ptr noundef %3) #0 {
  %5 = alloca i32, align 4
  %6 = alloca ptr, align 8
  %7 = alloca double, align 8
  %8 = alloca ptr, align 8
  %9 = alloca ptr, align 8
  %10 = alloca [32 x ptr], align 16
  %11 = alloca ptr, align 8
  %12 = alloca i32, align 4
  %13 = alloca i32, align 4
  store ptr %0, ptr %6, align 8, !tbaa !16
  store double %1, ptr %7, align 8, !tbaa !9
  store ptr %2, ptr %8, align 8, !tbaa !11
  store ptr %3, ptr %9, align 8, !tbaa !37
  call void @llvm.lifetime.start.p0(i64 256, ptr %10) #12
  call void @llvm.lifetime.start.p0(i64 8, ptr %11) #12
  call void @llvm.lifetime.start.p0(i64 4, ptr %12) #12
  %14 = load ptr, ptr %6, align 8, !tbaa !16
  %15 = getelementptr inbounds nuw %struct.zskiplist, ptr %14, i32 0, i32 0
  %16 = load ptr, ptr %15, align 8, !tbaa !22
  store ptr %16, ptr %11, align 8, !tbaa !14
  %17 = load ptr, ptr %6, align 8, !tbaa !16
  %18 = getelementptr inbounds nuw %struct.zskiplist, ptr %17, i32 0, i32 3
  %19 = load i32, ptr %18, align 8, !tbaa !18
  %20 = sub nsw i32 %19, 1
  store i32 %20, ptr %12, align 4, !tbaa !5
  br label %21

21:                                               ; preds = %90, %4
  %22 = load i32, ptr %12, align 4, !tbaa !5
  %23 = icmp sge i32 %22, 0
  br i1 %23, label %24, label %93

24:                                               ; preds = %21
  br label %25

25:                                               ; preds = %77, %24
  %26 = load ptr, ptr %11, align 8, !tbaa !14
  %27 = getelementptr inbounds nuw %struct.zskiplistNode, ptr %26, i32 0, i32 3
  %28 = load i32, ptr %12, align 4, !tbaa !5
  %29 = sext i32 %28 to i64
  %30 = getelementptr inbounds [0 x %struct.zskiplistLevel], ptr %27, i64 0, i64 %29
  %31 = getelementptr inbounds nuw %struct.zskiplistLevel, ptr %30, i32 0, i32 0
  %32 = load ptr, ptr %31, align 8, !tbaa !23
  %33 = icmp ne ptr %32, null
  br i1 %33, label %34, label %75

34:                                               ; preds = %25
  %35 = load ptr, ptr %11, align 8, !tbaa !14
  %36 = getelementptr inbounds nuw %struct.zskiplistNode, ptr %35, i32 0, i32 3
  %37 = load i32, ptr %12, align 4, !tbaa !5
  %38 = sext i32 %37 to i64
  %39 = getelementptr inbounds [0 x %struct.zskiplistLevel], ptr %36, i64 0, i64 %38
  %40 = getelementptr inbounds nuw %struct.zskiplistLevel, ptr %39, i32 0, i32 0
  %41 = load ptr, ptr %40, align 8, !tbaa !23
  %42 = getelementptr inbounds nuw %struct.zskiplistNode, ptr %41, i32 0, i32 1
  %43 = load double, ptr %42, align 8, !tbaa !9
  %44 = load double, ptr %7, align 8, !tbaa !9
  %45 = fcmp olt double %43, %44
  br i1 %45, label %73, label %46

46:                                               ; preds = %34
  %47 = load ptr, ptr %11, align 8, !tbaa !14
  %48 = getelementptr inbounds nuw %struct.zskiplistNode, ptr %47, i32 0, i32 3
  %49 = load i32, ptr %12, align 4, !tbaa !5
  %50 = sext i32 %49 to i64
  %51 = getelementptr inbounds [0 x %struct.zskiplistLevel], ptr %48, i64 0, i64 %50
  %52 = getelementptr inbounds nuw %struct.zskiplistLevel, ptr %51, i32 0, i32 0
  %53 = load ptr, ptr %52, align 8, !tbaa !23
  %54 = getelementptr inbounds nuw %struct.zskiplistNode, ptr %53, i32 0, i32 1
  %55 = load double, ptr %54, align 8, !tbaa !9
  %56 = load double, ptr %7, align 8, !tbaa !9
  %57 = fcmp oeq double %55, %56
  br i1 %57, label %58, label %71

58:                                               ; preds = %46
  %59 = load ptr, ptr %11, align 8, !tbaa !14
  %60 = getelementptr inbounds nuw %struct.zskiplistNode, ptr %59, i32 0, i32 3
  %61 = load i32, ptr %12, align 4, !tbaa !5
  %62 = sext i32 %61 to i64
  %63 = getelementptr inbounds [0 x %struct.zskiplistLevel], ptr %60, i64 0, i64 %62
  %64 = getelementptr inbounds nuw %struct.zskiplistLevel, ptr %63, i32 0, i32 0
  %65 = load ptr, ptr %64, align 8, !tbaa !23
  %66 = getelementptr inbounds nuw %struct.zskiplistNode, ptr %65, i32 0, i32 0
  %67 = load ptr, ptr %66, align 8, !tbaa !11
  %68 = load ptr, ptr %8, align 8, !tbaa !11
  %69 = call i32 @sdscmp(ptr noundef %67, ptr noundef %68)
  %70 = icmp slt i32 %69, 0
  br label %71

71:                                               ; preds = %58, %46
  %72 = phi i1 [ false, %46 ], [ %70, %58 ]
  br label %73

73:                                               ; preds = %71, %34
  %74 = phi i1 [ true, %34 ], [ %72, %71 ]
  br label %75

75:                                               ; preds = %73, %25
  %76 = phi i1 [ false, %25 ], [ %74, %73 ]
  br i1 %76, label %77, label %85

77:                                               ; preds = %75
  %78 = load ptr, ptr %11, align 8, !tbaa !14
  %79 = getelementptr inbounds nuw %struct.zskiplistNode, ptr %78, i32 0, i32 3
  %80 = load i32, ptr %12, align 4, !tbaa !5
  %81 = sext i32 %80 to i64
  %82 = getelementptr inbounds [0 x %struct.zskiplistLevel], ptr %79, i64 0, i64 %81
  %83 = getelementptr inbounds nuw %struct.zskiplistLevel, ptr %82, i32 0, i32 0
  %84 = load ptr, ptr %83, align 8, !tbaa !23
  store ptr %84, ptr %11, align 8, !tbaa !14
  br label %25, !llvm.loop !41

85:                                               ; preds = %75
  %86 = load ptr, ptr %11, align 8, !tbaa !14
  %87 = load i32, ptr %12, align 4, !tbaa !5
  %88 = sext i32 %87 to i64
  %89 = getelementptr inbounds [32 x ptr], ptr %10, i64 0, i64 %88
  store ptr %86, ptr %89, align 8, !tbaa !14
  br label %90

90:                                               ; preds = %85
  %91 = load i32, ptr %12, align 4, !tbaa !5
  %92 = add nsw i32 %91, -1
  store i32 %92, ptr %12, align 4, !tbaa !5
  br label %21, !llvm.loop !42

93:                                               ; preds = %21
  %94 = load ptr, ptr %11, align 8, !tbaa !14
  %95 = getelementptr inbounds nuw %struct.zskiplistNode, ptr %94, i32 0, i32 3
  %96 = getelementptr inbounds [0 x %struct.zskiplistLevel], ptr %95, i64 0, i64 0
  %97 = getelementptr inbounds nuw %struct.zskiplistLevel, ptr %96, i32 0, i32 0
  %98 = load ptr, ptr %97, align 8, !tbaa !23
  store ptr %98, ptr %11, align 8, !tbaa !14
  %99 = load ptr, ptr %11, align 8, !tbaa !14
  %100 = icmp ne ptr %99, null
  br i1 %100, label %101, label %126

101:                                              ; preds = %93
  %102 = load double, ptr %7, align 8, !tbaa !9
  %103 = load ptr, ptr %11, align 8, !tbaa !14
  %104 = getelementptr inbounds nuw %struct.zskiplistNode, ptr %103, i32 0, i32 1
  %105 = load double, ptr %104, align 8, !tbaa !9
  %106 = fcmp oeq double %102, %105
  br i1 %106, label %107, label %126

107:                                              ; preds = %101
  %108 = load ptr, ptr %11, align 8, !tbaa !14
  %109 = getelementptr inbounds nuw %struct.zskiplistNode, ptr %108, i32 0, i32 0
  %110 = load ptr, ptr %109, align 8, !tbaa !11
  %111 = load ptr, ptr %8, align 8, !tbaa !11
  %112 = call i32 @sdscmp(ptr noundef %110, ptr noundef %111)
  %113 = icmp eq i32 %112, 0
  br i1 %113, label %114, label %126

114:                                              ; preds = %107
  %115 = load ptr, ptr %6, align 8, !tbaa !16
  %116 = load ptr, ptr %11, align 8, !tbaa !14
  %117 = getelementptr inbounds [32 x ptr], ptr %10, i64 0, i64 0
  call void @zslDeleteNode(ptr noundef %115, ptr noundef %116, ptr noundef %117)
  %118 = load ptr, ptr %9, align 8, !tbaa !37
  %119 = icmp ne ptr %118, null
  br i1 %119, label %122, label %120

120:                                              ; preds = %114
  %121 = load ptr, ptr %11, align 8, !tbaa !14
  call void @zslFreeNode(ptr noundef %121)
  br label %125

122:                                              ; preds = %114
  %123 = load ptr, ptr %11, align 8, !tbaa !14
  %124 = load ptr, ptr %9, align 8, !tbaa !37
  store ptr %123, ptr %124, align 8, !tbaa !14
  br label %125

125:                                              ; preds = %122, %120
  store i32 1, ptr %5, align 4
  store i32 1, ptr %13, align 4
  br label %127

126:                                              ; preds = %107, %101, %93
  store i32 0, ptr %5, align 4
  store i32 1, ptr %13, align 4
  br label %127

127:                                              ; preds = %126, %125
  call void @llvm.lifetime.end.p0(i64 4, ptr %12) #12
  call void @llvm.lifetime.end.p0(i64 8, ptr %11) #12
  call void @llvm.lifetime.end.p0(i64 256, ptr %10) #12
  %128 = load i32, ptr %5, align 4
  ret i32 %128
}