; Function Attrs: nounwind uwtable
define dso_local range(i32 0, 2) i32 @zslDelete(ptr noundef captures(none) %0, double noundef %1, ptr noundef %2, ptr noundef writeonly captures(address_is_null) %3) local_unnamed_addr #0 {
  %5 = alloca [32 x ptr], align 16
  call void @llvm.lifetime.start.p0(i64 256, ptr nonnull %5) #18
  %6 = load ptr, ptr %0, align 8, !tbaa !18
  %7 = getelementptr inbounds nuw i8, ptr %0, i64 24
  %8 = load i32, ptr %7, align 8, !tbaa !12
  %9 = icmp sgt i32 %8, 0
  br i1 %9, label %.preheader.preheader, label %._crit_edge

.preheader.preheader:                             ; preds = %4
  %10 = zext nneg i32 %8 to i64
  br label %.preheader

.preheader:                                       ; preds = %.preheader.preheader, %.critedge
  %indvars.iv = phi i64 [ %10, %.preheader.preheader ], [ %indvars.iv.next, %.critedge ]
  %.03352 = phi ptr [ %6, %.preheader.preheader ], [ %.1.lcssa, %.critedge ]
  %indvars.iv.next = add nsw i64 %indvars.iv, -1
  %11 = getelementptr inbounds nuw i8, ptr %.03352, i64 24
  %12 = getelementptr inbounds [0 x %struct.zskiplistLevel], ptr %11, i64 0, i64 %indvars.iv.next
  %13 = load ptr, ptr %12, align 8, !tbaa !20
  %.not4142 = icmp eq ptr %13, null
  br i1 %.not4142, label %.critedge, label %.lr.ph

.lr.ph:                                           ; preds = %.preheader, %.critedge2
  %14 = phi ptr [ %28, %.critedge2 ], [ %13, %.preheader ]
  %15 = phi ptr [ %27, %.critedge2 ], [ %12, %.preheader ]
  %.143 = phi ptr [ %25, %.critedge2 ], [ %.03352, %.preheader ]
  %16 = getelementptr inbounds nuw i8, ptr %14, i64 8
  %17 = load double, ptr %16, align 8, !tbaa !5
  %18 = fcmp olt double %17, %1
  br i1 %18, label %.critedge2, label %19

19:                                               ; preds = %.lr.ph
  %20 = fcmp oeq double %17, %1
  br i1 %20, label %21, label %.critedge

21:                                               ; preds = %19
  %22 = load ptr, ptr %14, align 8, !tbaa !9
  %23 = tail call i32 @sdscmp(ptr noundef %22, ptr noundef %2) #18
  %24 = icmp slt i32 %23, 0
  br i1 %24, label %..critedge2_crit_edge, label %.critedge

..critedge2_crit_edge:                            ; preds = %21
  %.pre = load ptr, ptr %15, align 8, !tbaa !20
  br label %.critedge2

.critedge2:                                       ; preds = %..critedge2_crit_edge, %.lr.ph
  %25 = phi ptr [ %.pre, %..critedge2_crit_edge ], [ %14, %.lr.ph ]
  %26 = getelementptr inbounds nuw i8, ptr %25, i64 24
  %27 = getelementptr inbounds [0 x %struct.zskiplistLevel], ptr %26, i64 0, i64 %indvars.iv.next
  %28 = load ptr, ptr %27, align 8, !tbaa !20
  %.not41 = icmp eq ptr %28, null
  br i1 %.not41, label %.critedge, label %.lr.ph, !llvm.loop !36

.critedge:                                        ; preds = %21, %19, %.critedge2, %.preheader
  %.1.lcssa = phi ptr [ %.03352, %.preheader ], [ %25, %.critedge2 ], [ %.143, %19 ], [ %.143, %21 ]
  %29 = getelementptr inbounds [32 x ptr], ptr %5, i64 0, i64 %indvars.iv.next
  store ptr %.1.lcssa, ptr %29, align 8, !tbaa !29
  %30 = icmp sgt i64 %indvars.iv, 1
  br i1 %30, label %.preheader, label %._crit_edge, !llvm.loop !37

._crit_edge:                                      ; preds = %.critedge, %4
  %.033.lcssa = phi ptr [ %6, %4 ], [ %.1.lcssa, %.critedge ]
  %31 = getelementptr inbounds nuw i8, ptr %.033.lcssa, i64 24
  %32 = load ptr, ptr %31, align 8, !tbaa !20
  %.not = icmp eq ptr %32, null
  br i1 %.not, label %92, label %33

33:                                               ; preds = %._crit_edge
  %34 = getelementptr inbounds nuw i8, ptr %32, i64 8
  %35 = load double, ptr %34, align 8, !tbaa !5
  %36 = fcmp oeq double %1, %35
  br i1 %36, label %37, label %92

37:                                               ; preds = %33
  %38 = load ptr, ptr %32, align 8, !tbaa !9
  %39 = tail call i32 @sdscmp(ptr noundef %38, ptr noundef %2) #18
  %40 = icmp eq i32 %39, 0
  br i1 %40, label %41, label %92

41:                                               ; preds = %37
  %42 = load i32, ptr %7, align 8, !tbaa !12
  %43 = icmp sgt i32 %42, 0
  br i1 %43, label %.lr.ph.i, label %._crit_edge.i

.lr.ph.i:                                         ; preds = %41
  %44 = getelementptr inbounds nuw i8, ptr %32, i64 24
  %wide.trip.count.i = zext nneg i32 %42 to i64
  br label %45

45:                                               ; preds = %65, %.lr.ph.i
  %indvars.iv.i = phi i64 [ 0, %.lr.ph.i ], [ %indvars.iv.next.i, %65 ]
  %46 = getelementptr inbounds nuw ptr, ptr %5, i64 %indvars.iv.i
  %47 = load ptr, ptr %46, align 8, !tbaa !29
  %48 = getelementptr inbounds nuw i8, ptr %47, i64 24
  %49 = getelementptr inbounds nuw [0 x %struct.zskiplistLevel], ptr %48, i64 0, i64 %indvars.iv.i
  %50 = load ptr, ptr %49, align 8, !tbaa !20
  %51 = icmp eq ptr %50, %32
  br i1 %51, label %52, label %61

52:                                               ; preds = %45
  %53 = getelementptr inbounds nuw [0 x %struct.zskiplistLevel], ptr %44, i64 0, i64 %indvars.iv.i
  %54 = getelementptr inbounds nuw i8, ptr %53, i64 8
  %55 = load i64, ptr %54, align 8, !tbaa !27
  %56 = add i64 %55, -1
  %57 = getelementptr inbounds nuw i8, ptr %49, i64 8
  %58 = load i64, ptr %57, align 8, !tbaa !27
  %59 = add i64 %56, %58
  store i64 %59, ptr %57, align 8, !tbaa !27
  %60 = load ptr, ptr %53, align 8, !tbaa !20
  store ptr %60, ptr %49, align 8, !tbaa !20
  br label %65

61:                                               ; preds = %45
  %62 = getelementptr inbounds nuw i8, ptr %49, i64 8
  %63 = load i64, ptr %62, align 8, !tbaa !27
  %64 = add i64 %63, -1
  store i64 %64, ptr %62, align 8, !tbaa !27
  br label %65

65:                                               ; preds = %61, %52
  %indvars.iv.next.i = add nuw nsw i64 %indvars.iv.i, 1
  %exitcond.not.i = icmp eq i64 %indvars.iv.next.i, %wide.trip.count.i
  br i1 %exitcond.not.i, label %._crit_edge.i, label %45, !llvm.loop !34

._crit_edge.i:                                    ; preds = %65, %41
  %66 = getelementptr inbounds nuw i8, ptr %32, i64 24
  %67 = load ptr, ptr %66, align 8, !tbaa !20
  %.not.i = icmp eq ptr %67, null
  %68 = getelementptr inbounds nuw i8, ptr %32, i64 16
  %69 = load ptr, ptr %68, align 8, !tbaa !29
  br i1 %.not.i, label %72, label %70

70:                                               ; preds = %._crit_edge.i
  %71 = getelementptr inbounds nuw i8, ptr %67, i64 16
  store ptr %69, ptr %71, align 8, !tbaa !29
  br label %74

72:                                               ; preds = %._crit_edge.i
  %73 = getelementptr inbounds nuw i8, ptr %0, i64 8
  store ptr %69, ptr %73, align 8, !tbaa !19
  br label %74

74:                                               ; preds = %72, %70
  %75 = icmp sgt i32 %42, 1
  br i1 %75, label %.lr.ph34.i, label %zslDeleteNode.exit

.lr.ph34.i:                                       ; preds = %74
  %76 = load ptr, ptr %0, align 8, !tbaa !18
  %77 = getelementptr inbounds nuw i8, ptr %76, i64 24
  %78 = zext nneg i32 %42 to i64
  br label %79

79:                                               ; preds = %83, %.lr.ph34.i
  %indvars.iv37.i = phi i64 [ %78, %.lr.ph34.i ], [ %indvars.iv.next38.i, %83 ]
  %indvars.iv.next38.i = add nsw i64 %indvars.iv37.i, -1
  %80 = getelementptr inbounds nuw [0 x %struct.zskiplistLevel], ptr %77, i64 0, i64 %indvars.iv.next38.i
  %81 = load ptr, ptr %80, align 8, !tbaa !20
  %82 = icmp eq ptr %81, null
  br i1 %82, label %83, label %zslDeleteNode.exit

83:                                               ; preds = %79
  %84 = trunc nuw nsw i64 %indvars.iv.next38.i to i32
  store i32 %84, ptr %7, align 8, !tbaa !12
  %85 = icmp samesign ugt i64 %indvars.iv37.i, 2
  br i1 %85, label %79, label %zslDeleteNode.exit, !llvm.loop !35

zslDeleteNode.exit:                               ; preds = %79, %83, %74
  %86 = getelementptr inbounds nuw i8, ptr %0, i64 16
  %87 = load i64, ptr %86, align 8, !tbaa !17
  %88 = add i64 %87, -1
  store i64 %88, ptr %86, align 8, !tbaa !17
  %.not40 = icmp eq ptr %3, null
  br i1 %.not40, label %89, label %91

89:                                               ; preds = %zslDeleteNode.exit
  %90 = load ptr, ptr %32, align 8, !tbaa !9
  tail call void @sdsfree(ptr noundef %90) #18
  tail call void @zfree(ptr noundef nonnull %32) #18
  br label %92

91:                                               ; preds = %zslDeleteNode.exit
  store ptr %32, ptr %3, align 8, !tbaa !29
  br label %92

92:                                               ; preds = %._crit_edge, %33, %37, %89, %91
  %.034 = phi i32 [ 1, %91 ], [ 1, %89 ], [ 0, %37 ], [ 0, %33 ], [ 0, %._crit_edge ]
  call void @llvm.lifetime.end.p0(i64 256, ptr nonnull %5) #18
  ret i32 %.034
}